
bootloader.elf:     file format elf32-zpu

Disassembly of section .fixed_vectors:

00000000 <_start>:
   0:	0b          	nop
   1:	0b          	nop
   2:	0b          	nop
   3:	98          	im 24
   4:	92          	im 18
   5:	04          	poppc
	...

00000020 <_zpu_interrupt_vector>:
  20:	0b          	nop
  21:	0b          	nop
  22:	0b          	nop
  23:	97          	im 23
  24:	f3          	im -13
  25:	04          	poppc
	...

00000040 <_loadh>:
  40:	71          	loadsp 4
  41:	fd          	im -3
  42:	06          	and
  43:	08          	load
  44:	72          	loadsp 8
  45:	83          	im 3
  46:	06          	and
  47:	09          	not
  48:	81          	im 1
  49:	05          	add
  4a:	82          	im 2
  4b:	05          	add
  4c:	83          	im 3
  4d:	2b          	ashiftleft
  4e:	2a          	lshiftright
  4f:	83          	im 3
  50:	ff          	im -1
  51:	ff          	im -1
  52:	06          	and
  53:	52          	storesp 8
  54:	04          	poppc
	...

00000060 <_storeh>:
  60:	71          	loadsp 4
  61:	fd          	im -3
  62:	06          	and
  63:	08          	load
  64:	83          	im 3
  65:	ff          	im -1
  66:	ff          	im -1
  67:	73          	loadsp 12
  68:	83          	im 3
  69:	06          	and
  6a:	09          	not
  6b:	81          	im 1
  6c:	05          	add
  6d:	82          	im 2
  6e:	05          	add
  6f:	83          	im 3
  70:	2b          	ashiftleft
  71:	2b          	ashiftleft
  72:	09          	not
  73:	06          	and
  74:	73          	loadsp 12
  75:	83          	im 3
  76:	ff          	im -1
  77:	ff          	im -1
  78:	0b          	nop
  79:	0b          	nop
  7a:	0b          	nop
  7b:	0b          	nop
  7c:	83          	im 3
  7d:	a7          	im 39
  7e:	04          	poppc
	...

00000080 <_lessthan>:
  80:	72          	loadsp 8
  81:	09          	not
  82:	81          	im 1
  83:	05          	add
  84:	72          	loadsp 8
  85:	05          	add
  86:	73          	loadsp 12
  87:	73          	loadsp 12
  88:	09          	not
  89:	06          	and
  8a:	09          	not
  8b:	06          	and
  8c:	73          	loadsp 12
  8d:	09          	not
  8e:	73          	loadsp 12
  8f:	06          	and
  90:	07          	or
  91:	0a          	flip
  92:	81          	im 1
  93:	06          	and
  94:	53          	storesp 12
  95:	51          	storesp 4
  96:	04          	poppc
	...

000000a0 <_lessthanorequal>:
  a0:	72          	loadsp 8
  a1:	72          	loadsp 8
  a2:	24          	lessthan
  a3:	73          	loadsp 12
  a4:	73          	loadsp 12
  a5:	2e          	eq
  a6:	07          	or
  a7:	53          	storesp 12
  a8:	51          	storesp 4
  a9:	04          	poppc
	...

000000c0 <_ulessthan>:
  c0:	71          	loadsp 4
  c1:	73          	loadsp 12
  c2:	71          	loadsp 4
  c3:	09          	not
  c4:	71          	loadsp 4
  c5:	06          	and
  c6:	81          	im 1
  c7:	06          	and
  c8:	30          	neg
  c9:	72          	loadsp 8
  ca:	0a          	flip
  cb:	10          	addsp 0
  cc:	0a          	flip
  cd:	72          	loadsp 8
  ce:	0a          	flip
  cf:	10          	addsp 0
  d0:	0a          	flip
  d1:	31          	sub
  d2:	05          	add
  d3:	0a          	flip
  d4:	81          	im 1
  d5:	06          	and
  d6:	51          	storesp 4
  d7:	51          	storesp 4
  d8:	53          	storesp 12
  d9:	51          	storesp 4
  da:	04          	poppc
  db:	00          	breakpoint
  dc:	00          	breakpoint
  dd:	00          	breakpoint
	...

000000e0 <_ulessthanorequal>:
  e0:	72          	loadsp 8
  e1:	72          	loadsp 8
  e2:	26          	ulessthan
  e3:	73          	loadsp 12
  e4:	73          	loadsp 12
  e5:	2e          	eq
  e6:	07          	or
  e7:	53          	storesp 12
  e8:	51          	storesp 4
  e9:	04          	poppc
	...

00000100 <_swap>:
	...

00000120 <_slowmult>:
 120:	0b          	nop
 121:	0b          	nop
 122:	0b          	nop
 123:	88          	im 8
 124:	c3          	im -61
 125:	04          	poppc
	...

00000140 <_lshiftright>:
 140:	72          	loadsp 8
 141:	0a          	flip
 142:	72          	loadsp 8
 143:	2b          	ashiftleft
 144:	0a          	flip
 145:	53          	storesp 12
 146:	51          	storesp 4
 147:	04          	poppc
	...

00000160 <_ashiftleft>:
 160:	72          	loadsp 8
 161:	72          	loadsp 8
 162:	9f          	im 31
 163:	06          	and
 164:	09          	not
 165:	81          	im 1
 166:	05          	add
 167:	0b          	nop
 168:	0b          	nop
 169:	0b          	nop
 16a:	88          	im 8
 16b:	a6          	im 38
 16c:	05          	add
 16d:	04          	poppc
	...

00000180 <_ashiftright>:
 180:	72          	loadsp 8
 181:	72          	loadsp 8
 182:	2a          	lshiftright
 183:	ff          	im -1
 184:	73          	loadsp 12
 185:	9f          	im 31
 186:	06          	and
 187:	2a          	lshiftright
 188:	09          	not
 189:	74          	loadsp 16
 18a:	09          	not
 18b:	0a          	flip
 18c:	81          	im 1
 18d:	06          	and
 18e:	ff          	im -1
 18f:	05          	add
 190:	06          	and
 191:	07          	or
 192:	53          	storesp 12
 193:	51          	storesp 4
 194:	04          	poppc
	...

000001a0 <_call>:
 1a0:	71          	loadsp 4
 1a1:	71          	loadsp 4
 1a2:	53          	storesp 12
 1a3:	51          	storesp 4
 1a4:	02          	pushsp
 1a5:	0d          	popsp
 1a6:	04          	poppc

000001a7 <_storehtail>:
 1a7:	06          	and
 1a8:	73          	loadsp 12
 1a9:	83          	im 3
 1aa:	06          	and
 1ab:	09          	not
 1ac:	81          	im 1
 1ad:	05          	add
 1ae:	82          	im 2
 1af:	05          	add
 1b0:	83          	im 3
 1b1:	2b          	ashiftleft
 1b2:	0b          	nop
 1b3:	2b          	ashiftleft
 1b4:	07          	or
 1b5:	72          	loadsp 8
 1b6:	fc          	im -4
 1b7:	06          	and
 1b8:	0c          	store
 1b9:	51          	storesp 4
 1ba:	51          	storesp 4
 1bb:	04          	poppc
 1bc:	00          	breakpoint
 1bd:	00          	breakpoint
	...

000001c0 <_eq>:
 1c0:	72          	loadsp 8
 1c1:	09          	not
 1c2:	81          	im 1
 1c3:	05          	add
 1c4:	72          	loadsp 8
 1c5:	05          	add
 1c6:	09          	not
 1c7:	70          	loadsp 0
 1c8:	81          	im 1
 1c9:	05          	add
 1ca:	09          	not
 1cb:	06          	and
 1cc:	0a          	flip
 1cd:	81          	im 1
 1ce:	06          	and
 1cf:	53          	storesp 12
 1d0:	51          	storesp 4
 1d1:	04          	poppc
	...

000001e0 <_neq>:
 1e0:	72          	loadsp 8
 1e1:	09          	not
 1e2:	81          	im 1
 1e3:	05          	add
 1e4:	72          	loadsp 8
 1e5:	05          	add
 1e6:	09          	not
 1e7:	70          	loadsp 0
 1e8:	81          	im 1
 1e9:	05          	add
 1ea:	09          	not
 1eb:	06          	and
 1ec:	0a          	flip
 1ed:	09          	not
 1ee:	81          	im 1
 1ef:	06          	and
 1f0:	53          	storesp 12
 1f1:	51          	storesp 4
 1f2:	04          	poppc
	...

00000200 <_neg>:
 200:	71          	loadsp 4
 201:	09          	not
 202:	81          	im 1
 203:	05          	add
 204:	52          	storesp 8
 205:	04          	poppc
	...

00000220 <_sub>:
 220:	72          	loadsp 8
 221:	72          	loadsp 8
 222:	09          	not
 223:	81          	im 1
 224:	05          	add
 225:	05          	add
 226:	53          	storesp 12
 227:	51          	storesp 4
 228:	04          	poppc
	...

00000240 <_xor>:
 240:	72          	loadsp 8
 241:	09          	not
 242:	72          	loadsp 8
 243:	06          	and
 244:	73          	loadsp 12
 245:	73          	loadsp 12
 246:	09          	not
 247:	06          	and
 248:	07          	or
 249:	53          	storesp 12
 24a:	51          	storesp 4
 24b:	04          	poppc
	...

00000260 <_loadb>:
 260:	71          	loadsp 4
 261:	fc          	im -4
 262:	06          	and
 263:	08          	load
 264:	72          	loadsp 8
 265:	83          	im 3
 266:	06          	and
 267:	09          	not
 268:	81          	im 1
 269:	05          	add
 26a:	83          	im 3
 26b:	05          	add
 26c:	10          	addsp 0
 26d:	10          	addsp 0
 26e:	10          	addsp 0
 26f:	2a          	lshiftright
 270:	81          	im 1
 271:	ff          	im -1
 272:	06          	and
 273:	52          	storesp 8
 274:	04          	poppc
	...

00000280 <_storeb>:
 280:	71          	loadsp 4
 281:	fc          	im -4
 282:	06          	and
 283:	08          	load
 284:	0b          	nop
 285:	0b          	nop
 286:	0b          	nop
 287:	9c          	im 28
 288:	c8          	im -56
 289:	73          	loadsp 12
 28a:	83          	im 3
 28b:	06          	and
 28c:	10          	addsp 0
 28d:	10          	addsp 0
 28e:	05          	add
 28f:	08          	load
 290:	06          	and
 291:	0b          	nop
 292:	0b          	nop
 293:	0b          	nop
 294:	88          	im 8
 295:	a9          	im 41
 296:	04          	poppc
	...

000002a0 <_div>:
 2a0:	0b          	nop
 2a1:	0b          	nop
 2a2:	0b          	nop
 2a3:	88          	im 8
 2a4:	f7          	im -9
 2a5:	04          	poppc
	...

000002c0 <_mod>:
 2c0:	0b          	nop
 2c1:	0b          	nop
 2c2:	0b          	nop
 2c3:	88          	im 8
 2c4:	df          	im -33
 2c5:	04          	poppc
	...

000002e0 <_eqbranch>:
 2e0:	72          	loadsp 8
 2e1:	09          	not
 2e2:	70          	loadsp 0
 2e3:	81          	im 1
 2e4:	05          	add
 2e5:	09          	not
 2e6:	06          	and
 2e7:	0a          	flip
 2e8:	81          	im 1
 2e9:	06          	and
 2ea:	ff          	im -1
 2eb:	05          	add
 2ec:	70          	loadsp 0
 2ed:	54          	storesp 16
 2ee:	71          	loadsp 4
 2ef:	06          	and
 2f0:	73          	loadsp 12
 2f1:	09          	not
 2f2:	72          	loadsp 8
 2f3:	74          	loadsp 16
 2f4:	05          	add
 2f5:	ff          	im -1
 2f6:	05          	add
 2f7:	06          	and
 2f8:	07          	or
 2f9:	51          	storesp 4
 2fa:	51          	storesp 4
 2fb:	51          	storesp 4
 2fc:	04          	poppc
 2fd:	00          	breakpoint
	...

00000300 <_neqbranch>:
 300:	72          	loadsp 8
 301:	09          	not
 302:	70          	loadsp 0
 303:	81          	im 1
 304:	05          	add
 305:	09          	not
 306:	06          	and
 307:	0a          	flip
 308:	09          	not
 309:	81          	im 1
 30a:	06          	and
 30b:	ff          	im -1
 30c:	05          	add
 30d:	70          	loadsp 0
 30e:	54          	storesp 16
 30f:	71          	loadsp 4
 310:	06          	and
 311:	73          	loadsp 12
 312:	09          	not
 313:	72          	loadsp 8
 314:	74          	loadsp 16
 315:	05          	add
 316:	ff          	im -1
 317:	05          	add
 318:	06          	and
 319:	07          	or
 31a:	51          	storesp 4
 31b:	51          	storesp 4
 31c:	51          	storesp 4
 31d:	04          	poppc
	...

00000320 <_poppcrel>:
 320:	05          	add
 321:	ff          	im -1
 322:	05          	add
 323:	04          	poppc
	...

00000340 <_config>:
 340:	81          	im 1
 341:	0b          	nop
 342:	0b          	nop
 343:	0b          	nop
 344:	0b          	nop
 345:	a0          	im 32
 346:	88          	im 8
 347:	0c          	store
 348:	51          	storesp 4
 349:	04          	poppc
	...

00000360 <_pushpc>:
 360:	71          	loadsp 4
 361:	81          	im 1
 362:	05          	add
 363:	52          	storesp 8
 364:	04          	poppc
	...

00000380 <_syscall_emulate>:
	...

000003a0 <_pushspadd>:
 3a0:	02          	pushsp
 3a1:	84          	im 4
 3a2:	05          	add
 3a3:	72          	loadsp 8
 3a4:	10          	addsp 0
 3a5:	10          	addsp 0
 3a6:	05          	add
 3a7:	52          	storesp 8
 3a8:	04          	poppc
	...

000003c0 <_halfmult>:
	...

000003e0 <_callpcrel>:
 3e0:	71          	loadsp 4
 3e1:	71          	loadsp 4
 3e2:	05          	add
 3e3:	ff          	im -1
 3e4:	05          	add
 3e5:	71          	loadsp 4
 3e6:	53          	storesp 12
 3e7:	51          	storesp 4
 3e8:	02          	pushsp
 3e9:	0d          	popsp
 3ea:	04          	poppc
	...
Disassembly of section .init:

00000400 <_init>:
 400:	81          	im 1
 401:	d4          	im -44
 402:	3f          	callpcrel
 403:	94          	im 20
 404:	97          	im 23
 405:	3f          	callpcrel
 406:	04          	poppc
Disassembly of section .text:

00000407 <_ashiftleftBegin>:
 407:	10          	addsp 0
 408:	10          	addsp 0
 409:	10          	addsp 0
 40a:	10          	addsp 0
 40b:	10          	addsp 0
 40c:	10          	addsp 0
 40d:	10          	addsp 0
 40e:	10          	addsp 0
 40f:	10          	addsp 0
 410:	10          	addsp 0
 411:	10          	addsp 0
 412:	10          	addsp 0
 413:	10          	addsp 0
 414:	10          	addsp 0
 415:	10          	addsp 0
 416:	10          	addsp 0
 417:	10          	addsp 0
 418:	10          	addsp 0
 419:	10          	addsp 0
 41a:	10          	addsp 0
 41b:	10          	addsp 0
 41c:	10          	addsp 0
 41d:	10          	addsp 0
 41e:	10          	addsp 0
 41f:	10          	addsp 0
 420:	10          	addsp 0
 421:	10          	addsp 0
 422:	10          	addsp 0
 423:	10          	addsp 0
 424:	10          	addsp 0
 425:	10          	addsp 0

00000426 <_ashiftleftEnd>:
 426:	53          	storesp 12
 427:	51          	storesp 4
 428:	04          	poppc

00000429 <_storebtail>:
 429:	73          	loadsp 12
 42a:	81          	im 1
 42b:	ff          	im -1
 42c:	06          	and
 42d:	73          	loadsp 12
 42e:	83          	im 3
 42f:	06          	and
 430:	09          	not
 431:	81          	im 1
 432:	05          	add
 433:	83          	im 3
 434:	05          	add
 435:	10          	addsp 0
 436:	10          	addsp 0
 437:	10          	addsp 0
 438:	2b          	ashiftleft
 439:	07          	or
 43a:	72          	loadsp 8
 43b:	fc          	im -4
 43c:	06          	and
 43d:	0c          	store
 43e:	51          	storesp 4
 43f:	51          	storesp 4
 440:	04          	poppc

00000441 <_syscall>:
 441:	3c          	syscall
 442:	04          	poppc

00000443 <_slowmultImpl>:
 443:	72          	loadsp 8
 444:	72          	loadsp 8
 445:	80          	im 0
 446:	72          	loadsp 8
 447:	81          	im 1
 448:	06          	and
 449:	ff          	im -1
 44a:	05          	add
 44b:	09          	not
 44c:	72          	loadsp 8
 44d:	06          	and
 44e:	05          	add
 44f:	71          	loadsp 4
 450:	10          	addsp 0
 451:	52          	storesp 8
 452:	72          	loadsp 8
 453:	0a          	flip
 454:	10          	addsp 0
 455:	0a          	flip
 456:	53          	storesp 12
 457:	72          	loadsp 8
 458:	ed          	im -19
 459:	38          	neqbranch
 45a:	51          	storesp 4
 45b:	51          	storesp 4
 45c:	53          	storesp 12
 45d:	51          	storesp 4
 45e:	04          	poppc

0000045f <___mod>:
 45f:	88          	im 8
 460:	08          	load
 461:	8c          	im 12
 462:	08          	load
 463:	90          	im 16
 464:	08          	load
 465:	75          	loadsp 20
 466:	75          	loadsp 20
 467:	99          	im 25
 468:	d2          	im -46
 469:	2d          	call
 46a:	50          	storesp 0
 46b:	50          	storesp 0
 46c:	88          	im 8
 46d:	08          	load
 46e:	56          	storesp 24
 46f:	90          	im 16
 470:	0c          	store
 471:	8c          	im 12
 472:	0c          	store
 473:	88          	im 8
 474:	0c          	store
 475:	51          	storesp 4
 476:	04          	poppc

00000477 <___div>:
 477:	88          	im 8
 478:	08          	load
 479:	8c          	im 12
 47a:	08          	load
 47b:	90          	im 16
 47c:	08          	load
 47d:	75          	loadsp 20
 47e:	75          	loadsp 20
 47f:	98          	im 24
 480:	a0          	im 32
 481:	2d          	call
 482:	50          	storesp 0
 483:	50          	storesp 0
 484:	88          	im 8
 485:	08          	load
 486:	56          	storesp 24
 487:	90          	im 16
 488:	0c          	store
 489:	8c          	im 12
 48a:	0c          	store
 48b:	88          	im 8
 48c:	0c          	store
 48d:	51          	storesp 4
 48e:	04          	poppc
 48f:	88          	im 8
 490:	08          	load
 491:	8c          	im 12
 492:	08          	load
 493:	90          	im 16
 494:	08          	load
 495:	8d          	im 13
 496:	e1          	im -31
 497:	2d          	call
 498:	90          	im 16
 499:	0c          	store
 49a:	8c          	im 12
 49b:	0c          	store
 49c:	88          	im 8
 49d:	0c          	store
 49e:	04          	poppc

0000049f <__do_global_dtors_aux>:
 49f:	ff          	im -1
 4a0:	3d          	pushspadd
 4a1:	0d          	popsp
 4a2:	0b          	nop
 4a3:	0b          	nop
 4a4:	0b          	nop
 4a5:	a0          	im 32
 4a6:	98          	im 24
 4a7:	33          	loadb
 4a8:	51          	storesp 4
 4a9:	70          	loadsp 0
 4aa:	a6          	im 38
 4ab:	38          	neqbranch
 4ac:	a0          	im 32
 4ad:	94          	im 20
 4ae:	08          	load
 4af:	70          	loadsp 0
 4b0:	08          	load
 4b1:	52          	storesp 8
 4b2:	52          	storesp 8
 4b3:	70          	loadsp 0
 4b4:	80          	im 0
 4b5:	2e          	eq
 4b6:	92          	im 18
 4b7:	38          	neqbranch

000004b8 <.L10>:
 4b8:	84          	im 4
 4b9:	12          	addsp 8
 4ba:	a0          	im 32
 4bb:	94          	im 20
 4bc:	0c          	store
 4bd:	70          	loadsp 0
 4be:	2d          	call
 4bf:	a0          	im 32
 4c0:	94          	im 20
 4c1:	08          	load
 4c2:	70          	loadsp 0
 4c3:	08          	load
 4c4:	52          	storesp 8
 4c5:	52          	storesp 8
 4c6:	70          	loadsp 0
 4c7:	f0          	im -16
 4c8:	38          	neqbranch

000004c9 <.L7>:
 4c9:	81          	im 1
 4ca:	0b          	nop
 4cb:	0b          	nop
 4cc:	0b          	nop
 4cd:	0b          	nop
 4ce:	a0          	im 32
 4cf:	98          	im 24
 4d0:	34          	storeb

000004d1 <.L1>:
 4d1:	83          	im 3
 4d2:	3d          	pushspadd
 4d3:	0d          	popsp
 4d4:	04          	poppc

000004d5 <call___do_global_dtors_aux>:
 4d5:	04          	poppc

000004d6 <frame_dummy>:
 4d6:	80          	im 0
 4d7:	3d          	pushspadd
 4d8:	0d          	popsp
 4d9:	0b          	nop
 4da:	0b          	nop
 4db:	0b          	nop
 4dc:	9d          	im 29
 4dd:	ac          	im 44
 4de:	08          	load
 4df:	80          	im 0
 4e0:	2e          	eq
 4e1:	8e          	im 14
 4e2:	38          	neqbranch
 4e3:	0b          	nop
 4e4:	0b          	nop
 4e5:	0b          	nop
 4e6:	0b          	nop
 4e7:	80          	im 0
 4e8:	0b          	nop
 4e9:	80          	im 0
 4ea:	2e          	eq
 4eb:	09          	not
 4ec:	81          	im 1
 4ed:	06          	and
 4ee:	85          	im 5
 4ef:	38          	neqbranch

000004f0 <.L12>:
 4f0:	82          	im 2
 4f1:	3d          	pushspadd
 4f2:	0d          	popsp
 4f3:	04          	poppc

000004f4 <.L15>:
 4f4:	0b          	nop
 4f5:	0b          	nop
 4f6:	0b          	nop
 4f7:	9d          	im 29
 4f8:	ac          	im 44
 4f9:	51          	storesp 4
 4fa:	0b          	nop
 4fb:	0b          	nop
 4fc:	0b          	nop
 4fd:	f6          	im -10
 4fe:	81          	im 1
 4ff:	3f          	callpcrel
 500:	82          	im 2
 501:	3d          	pushspadd
 502:	0d          	popsp
 503:	04          	poppc

00000504 <call_frame_dummy>:
 504:	04          	poppc

00000505 <_Z7outbytei>:
 505:	80          	im 0
 506:	3d          	pushspadd
 507:	0d          	popsp

00000508 <.L2>:
 508:	82          	im 2
 509:	90          	im 16
 50a:	84          	im 4
 50b:	08          	load
 50c:	70          	loadsp 0
 50d:	81          	im 1
 50e:	2a          	lshiftright
 50f:	70          	loadsp 0
 510:	81          	im 1
 511:	06          	and
 512:	51          	storesp 4
 513:	51          	storesp 4
 514:	51          	storesp 4
 515:	70          	loadsp 0
 516:	f1          	im -15
 517:	38          	neqbranch
 518:	72          	loadsp 8
 519:	82          	im 2
 51a:	90          	im 16
 51b:	80          	im 0
 51c:	0c          	store
 51d:	82          	im 2
 51e:	3d          	pushspadd
 51f:	0d          	popsp
 520:	04          	poppc

00000521 <_Z8sendBytej>:
 521:	fe          	im -2
 522:	3d          	pushspadd
 523:	0d          	popsp
 524:	74          	loadsp 16
 525:	70          	loadsp 0
 526:	82          	im 2
 527:	f0          	im -16
 528:	88          	im 8
 529:	0c          	store
 52a:	70          	loadsp 0
 52b:	81          	im 1
 52c:	ff          	im -1
 52d:	06          	and
 52e:	ff          	im -1
 52f:	83          	im 3
 530:	11          	addsp 4
 531:	54          	storesp 16
 532:	51          	storesp 4
 533:	53          	storesp 12
 534:	71          	loadsp 4
 535:	81          	im 1
 536:	26          	ulessthan
 537:	8d          	im 13
 538:	38          	neqbranch
 539:	80          	im 0
 53a:	fd          	im -3
 53b:	51          	storesp 4
 53c:	8a          	im 10
 53d:	85          	im 5
 53e:	2d          	call
 53f:	72          	loadsp 8
 540:	a0          	im 32
 541:	32          	xor
 542:	51          	storesp 4
 543:	83          	im 3
 544:	39          	poppcrel

00000545 <.L6>:
 545:	72          	loadsp 8
 546:	51          	storesp 4

00000547 <.L8>:
 547:	8a          	im 10
 548:	85          	im 5
 549:	2d          	call
 54a:	84          	im 4
 54b:	3d          	pushspadd
 54c:	0d          	popsp
 54d:	04          	poppc

0000054e <_Z10sendBufferPKhj>:
 54e:	fe          	im -2
 54f:	3d          	pushspadd
 550:	0d          	popsp
 551:	74          	loadsp 16
 552:	ff          	im -1
 553:	17          	addsp 28
 554:	53          	storesp 12
 555:	53          	storesp 12

00000556 <.L15>:
 556:	71          	loadsp 4
 557:	ff          	im -1
 558:	2e          	eq
 559:	90          	im 16
 55a:	38          	neqbranch
 55b:	72          	loadsp 8
 55c:	70          	loadsp 0
 55d:	81          	im 1
 55e:	05          	add
 55f:	54          	storesp 16
 560:	33          	loadb
 561:	51          	storesp 4
 562:	8a          	im 10
 563:	a1          	im 33
 564:	2d          	call
 565:	ff          	im -1
 566:	12          	addsp 8
 567:	52          	storesp 8
 568:	ed          	im -19
 569:	39          	poppcrel

0000056a <.L14>:
 56a:	84          	im 4
 56b:	3d          	pushspadd
 56c:	0d          	popsp
 56d:	04          	poppc

0000056e <_Z11prepareSendv>:
 56e:	80          	im 0
 56f:	3d          	pushspadd
 570:	0d          	popsp
 571:	83          	im 3
 572:	ff          	im -1
 573:	ff          	im -1
 574:	0b          	nop
 575:	82          	im 2
 576:	f0          	im -16
 577:	80          	im 0
 578:	0c          	store
 579:	80          	im 0
 57a:	fe          	im -2
 57b:	51          	storesp 4
 57c:	8a          	im 10
 57d:	85          	im 5
 57e:	2d          	call
 57f:	82          	im 2
 580:	3d          	pushspadd
 581:	0d          	popsp
 582:	04          	poppc

00000583 <_Z10finishSendv>:
 583:	ff          	im -1
 584:	3d          	pushspadd
 585:	0d          	popsp
 586:	82          	im 2
 587:	f0          	im -16
 588:	80          	im 0
 589:	08          	load
 58a:	70          	loadsp 0
 58b:	88          	im 8
 58c:	2a          	lshiftright
 58d:	52          	storesp 8
 58e:	52          	storesp 8
 58f:	8a          	im 10
 590:	a1          	im 33
 591:	2d          	call
 592:	71          	loadsp 4
 593:	81          	im 1
 594:	ff          	im -1
 595:	06          	and
 596:	51          	storesp 4
 597:	8a          	im 10
 598:	a1          	im 33
 599:	2d          	call
 59a:	80          	im 0
 59b:	fe          	im -2
 59c:	51          	storesp 4
 59d:	8a          	im 10
 59e:	85          	im 5
 59f:	2d          	call
 5a0:	83          	im 3
 5a1:	3d          	pushspadd
 5a2:	0d          	popsp
 5a3:	04          	poppc

000005a4 <_Z8spi_copyv>:
 5a4:	80          	im 0
 5a5:	ff          	im -1
 5a6:	f8          	im -8
 5a7:	0d          	popsp
 5a8:	8c          	im 12
 5a9:	b2          	im 50
 5aa:	04          	poppc

000005ab <.L19>:
 5ab:	ff          	im -1
 5ac:	39          	poppcrel

000005ad <_Z6inbytev>:
 5ad:	ff          	im -1
 5ae:	3d          	pushspadd
 5af:	0d          	popsp

000005b0 <.L30>:
 5b0:	82          	im 2
 5b1:	90          	im 16
 5b2:	84          	im 4
 5b3:	08          	load
 5b4:	70          	loadsp 0
 5b5:	81          	im 1
 5b6:	06          	and
 5b7:	51          	storesp 4
 5b8:	51          	storesp 4
 5b9:	70          	loadsp 0
 5ba:	9f          	im 31
 5bb:	38          	neqbranch
 5bc:	a2          	im 34
 5bd:	cc          	im -52
 5be:	08          	load
 5bf:	52          	storesp 8
 5c0:	71          	loadsp 4
 5c1:	ee          	im -18
 5c2:	38          	neqbranch
 5c3:	a2          	im 34
 5c4:	c8          	im -56
 5c5:	08          	load
 5c6:	51          	storesp 4
 5c7:	87          	im 7
 5c8:	e8          	im -24
 5c9:	71          	loadsp 4
 5ca:	27          	ulessthanorequal
 5cb:	e4          	im -28
 5cc:	38          	neqbranch
 5cd:	71          	loadsp 4
 5ce:	82          	im 2
 5cf:	c0          	im -64
 5d0:	80          	im 0
 5d1:	0c          	store
 5d2:	71          	loadsp 4
 5d3:	82          	im 2
 5d4:	b0          	im 48
 5d5:	80          	im 0
 5d6:	0c          	store
 5d7:	8b          	im 11
 5d8:	a4          	im 36
 5d9:	2d          	call

000005da <.L26>:
 5da:	82          	im 2
 5db:	90          	im 16
 5dc:	80          	im 0
 5dd:	08          	load
 5de:	88          	im 8
 5df:	0c          	store
 5e0:	83          	im 3
 5e1:	3d          	pushspadd
 5e2:	0d          	popsp
 5e3:	04          	poppc

000005e4 <_Z11enableTimerv>:
 5e4:	82          	im 2
 5e5:	f6          	im -10
 5e6:	ff          	im -1
 5e7:	0b          	nop
 5e8:	82          	im 2
 5e9:	b0          	im 48
 5ea:	88          	im 8
 5eb:	0c          	store
 5ec:	80          	im 0
 5ed:	0b          	nop
 5ee:	82          	im 2
 5ef:	b0          	im 48
 5f0:	84          	im 4
 5f1:	0c          	store
 5f2:	9f          	im 31
 5f3:	0b          	nop
 5f4:	82          	im 2
 5f5:	b0          	im 48
 5f6:	80          	im 0
 5f7:	0c          	store
 5f8:	04          	poppc

000005f9 <_Z11spi_disablev>:
 5f9:	ff          	im -1
 5fa:	3d          	pushspadd
 5fb:	0d          	popsp
 5fc:	82          	im 2
 5fd:	a0          	im 32
 5fe:	84          	im 4
 5ff:	70          	loadsp 0
 600:	08          	load
 601:	70          	loadsp 0
 602:	90          	im 16
 603:	80          	im 0
 604:	0a          	flip
 605:	07          	or
 606:	72          	loadsp 8
 607:	0c          	store
 608:	52          	storesp 8
 609:	52          	storesp 8
 60a:	83          	im 3
 60b:	3d          	pushspadd
 60c:	0d          	popsp
 60d:	04          	poppc

0000060e <_Z10spi_enablev>:
 60e:	ff          	im -1
 60f:	3d          	pushspadd
 610:	0d          	popsp
 611:	82          	im 2
 612:	a0          	im 32
 613:	84          	im 4
 614:	70          	loadsp 0
 615:	08          	load
 616:	70          	loadsp 0
 617:	ef          	im -17
 618:	ff          	im -1
 619:	0a          	flip
 61a:	06          	and
 61b:	72          	loadsp 8
 61c:	0c          	store
 61d:	52          	storesp 8
 61e:	52          	storesp 8
 61f:	83          	im 3
 620:	3d          	pushspadd
 621:	0d          	popsp
 622:	04          	poppc

00000623 <start>:
 623:	a0          	im 32
 624:	8c          	im 12
 625:	0b          	nop
 626:	a0          	im 32
 627:	80          	im 0
 628:	0c          	store
 629:	80          	im 0
 62a:	ff          	im -1
 62b:	f8          	im -8
 62c:	0d          	popsp
 62d:	a0          	im 32
 62e:	84          	im 4
 62f:	04          	poppc

00000630 <.L62>:
 630:	ff          	im -1
 631:	39          	poppcrel

00000632 <spi_copy_impl>:
 632:	fc          	im -4
 633:	3d          	pushspadd
 634:	0d          	popsp
 635:	a0          	im 32
 636:	80          	im 0
 637:	54          	storesp 16
 638:	8c          	im 12
 639:	8e          	im 14
 63a:	2d          	call
 63b:	8b          	im 11
 63c:	0b          	nop
 63d:	82          	im 2
 63e:	80          	im 0
 63f:	84          	im 4
 640:	0c          	store
 641:	84          	im 4
 642:	0b          	nop
 643:	82          	im 2
 644:	80          	im 0
 645:	84          	im 4
 646:	0c          	store
 647:	88          	im 8
 648:	a0          	im 32
 649:	0b          	nop
 64a:	82          	im 2
 64b:	80          	im 0
 64c:	84          	im 4
 64d:	0c          	store
 64e:	90          	im 16
 64f:	c0          	im -64
 650:	80          	im 0
 651:	0b          	nop
 652:	82          	im 2
 653:	80          	im 0
 654:	84          	im 4
 655:	0c          	store
 656:	80          	im 0
 657:	0b          	nop
 658:	82          	im 2
 659:	80          	im 0
 65a:	84          	im 4
 65b:	0c          	store
 65c:	80          	im 0
 65d:	0b          	nop
 65e:	82          	im 2
 65f:	80          	im 0
 660:	84          	im 4
 661:	0c          	store
 662:	80          	im 0
 663:	0b          	nop
 664:	82          	im 2
 665:	80          	im 0
 666:	84          	im 4
 667:	0c          	store
 668:	82          	im 2
 669:	80          	im 0
 66a:	84          	im 4
 66b:	08          	load
 66c:	83          	im 3
 66d:	ff          	im -1
 66e:	ff          	im -1
 66f:	06          	and
 670:	53          	storesp 12
 671:	80          	im 0
 672:	0b          	nop
 673:	82          	im 2
 674:	80          	im 0
 675:	84          	im 4
 676:	0c          	store
 677:	80          	im 0
 678:	0b          	nop
 679:	82          	im 2
 67a:	80          	im 0
 67b:	84          	im 4
 67c:	0c          	store
 67d:	82          	im 2
 67e:	80          	im 0
 67f:	84          	im 4
 680:	08          	load
 681:	83          	im 3
 682:	ff          	im -1
 683:	ff          	im -1
 684:	06          	and
 685:	55          	storesp 20
 686:	80          	im 0
 687:	df          	im -33
 688:	80          	im 0
 689:	73          	loadsp 12
 68a:	27          	ulessthanorequal
 68b:	83          	im 3
 68c:	38          	neqbranch

0000068d <.L88>:
 68d:	ff          	im -1
 68e:	39          	poppcrel

0000068f <.L87>:
 68f:	83          	im 3
 690:	ff          	im -1
 691:	ff          	im -1
 692:	0b          	nop
 693:	82          	im 2
 694:	f0          	im -16
 695:	80          	im 0
 696:	0c          	store

00000697 <.L110>:
 697:	ff          	im -1
 698:	13          	addsp 12
 699:	53          	storesp 12
 69a:	72          	loadsp 8
 69b:	ff          	im -1
 69c:	2e          	eq
 69d:	a4          	im 36
 69e:	38          	neqbranch
 69f:	84          	im 4
 6a0:	52          	storesp 8

000006a1 <.L99>:
 6a1:	80          	im 0
 6a2:	0b          	nop
 6a3:	82          	im 2
 6a4:	80          	im 0
 6a5:	84          	im 4
 6a6:	0c          	store
 6a7:	82          	im 2
 6a8:	80          	im 0
 6a9:	84          	im 4
 6aa:	08          	load
 6ab:	82          	im 2
 6ac:	f0          	im -16
 6ad:	88          	im 8
 6ae:	0c          	store
 6af:	ff          	im -1
 6b0:	12          	addsp 8
 6b1:	52          	storesp 8
 6b2:	71          	loadsp 4
 6b3:	ed          	im -19
 6b4:	38          	neqbranch
 6b5:	73          	loadsp 12
 6b6:	84          	im 4
 6b7:	15          	addsp 20
 6b8:	82          	im 2
 6b9:	80          	im 0
 6ba:	84          	im 4
 6bb:	08          	load
 6bc:	72          	loadsp 8
 6bd:	0c          	store
 6be:	55          	storesp 20
 6bf:	52          	storesp 8
 6c0:	d6          	im -42
 6c1:	39          	poppcrel

000006c2 <.L107>:
 6c2:	8b          	im 11
 6c3:	f9          	im -7
 6c4:	2d          	call
 6c5:	82          	im 2
 6c6:	f0          	im -16
 6c7:	80          	im 0
 6c8:	08          	load
 6c9:	51          	storesp 4
 6ca:	74          	loadsp 16
 6cb:	71          	loadsp 4
 6cc:	2e          	eq
 6cd:	83          	im 3
 6ce:	38          	neqbranch

000006cf <.L104>:
 6cf:	ff          	im -1
 6d0:	39          	poppcrel

000006d1 <.L103>:
 6d1:	82          	im 2
 6d2:	80          	im 0
 6d3:	80          	im 0
 6d4:	08          	load
 6d5:	70          	loadsp 0
 6d6:	ff          	im -1
 6d7:	bf          	im 63
 6d8:	06          	and
 6d9:	82          	im 2
 6da:	80          	im 0
 6db:	80          	im 0
 6dc:	0c          	store
 6dd:	51          	storesp 4
 6de:	8c          	im 12
 6df:	a3          	im 35
 6e0:	2d          	call

000006e1 <_zpu_interrupt>:
 6e1:	ff          	im -1
 6e2:	3d          	pushspadd
 6e3:	0d          	popsp
 6e4:	a2          	im 34
 6e5:	c8          	im -56
 6e6:	08          	load
 6e7:	81          	im 1
 6e8:	11          	addsp 4
 6e9:	a2          	im 34
 6ea:	c8          	im -56
 6eb:	0c          	store
 6ec:	51          	storesp 4
 6ed:	82          	im 2
 6ee:	b0          	im 48
 6ef:	80          	im 0
 6f0:	70          	loadsp 0
 6f1:	08          	load
 6f2:	70          	loadsp 0
 6f3:	fe          	im -2
 6f4:	ff          	im -1
 6f5:	06          	and
 6f6:	72          	loadsp 8
 6f7:	0c          	store
 6f8:	52          	storesp 8
 6f9:	52          	storesp 8
 6fa:	83          	im 3
 6fb:	3d          	pushspadd
 6fc:	0d          	popsp
 6fd:	04          	poppc

000006fe <_Z14is_atmel_flashv>:
 6fe:	ff          	im -1
 6ff:	3d          	pushspadd
 700:	0d          	popsp
 701:	80          	im 0
 702:	0b          	nop
 703:	a2          	im 34
 704:	d0          	im -48
 705:	08          	load
 706:	87          	im 7
 707:	fc          	im -4
 708:	80          	im 0
 709:	80          	im 0
 70a:	06          	and
 70b:	52          	storesp 8
 70c:	52          	storesp 8
 70d:	70          	loadsp 0
 70e:	80          	im 0
 70f:	fc          	im -4
 710:	80          	im 0
 711:	80          	im 0
 712:	2e          	eq
 713:	09          	not
 714:	81          	im 1
 715:	06          	and
 716:	83          	im 3
 717:	38          	neqbranch
 718:	81          	im 1
 719:	52          	storesp 8

0000071a <.L113>:
 71a:	71          	loadsp 4
 71b:	88          	im 8
 71c:	0c          	store
 71d:	83          	im 3
 71e:	3d          	pushspadd
 71f:	0d          	popsp
 720:	04          	poppc

00000721 <_Z15spi_read_statusv>:
 721:	80          	im 0
 722:	3d          	pushspadd
 723:	0d          	popsp
 724:	8c          	im 12
 725:	8e          	im 14
 726:	2d          	call
 727:	8d          	im 13
 728:	fe          	im -2
 729:	2d          	call
 72a:	88          	im 8
 72b:	08          	load
 72c:	80          	im 0
 72d:	2e          	eq
 72e:	8a          	im 10
 72f:	38          	neqbranch
 730:	80          	im 0
 731:	d7          	im -41
 732:	0b          	nop
 733:	82          	im 2
 734:	80          	im 0
 735:	84          	im 4
 736:	0c          	store
 737:	87          	im 7
 738:	39          	poppcrel

00000739 <.L115>:
 739:	85          	im 5
 73a:	0b          	nop
 73b:	82          	im 2
 73c:	80          	im 0
 73d:	84          	im 4
 73e:	0c          	store

0000073f <.L118>:
 73f:	80          	im 0
 740:	0b          	nop
 741:	82          	im 2
 742:	80          	im 0
 743:	84          	im 4
 744:	0c          	store
 745:	82          	im 2
 746:	80          	im 0
 747:	84          	im 4
 748:	08          	load
 749:	70          	loadsp 0
 74a:	81          	im 1
 74b:	ff          	im -1
 74c:	06          	and
 74d:	51          	storesp 4
 74e:	51          	storesp 4
 74f:	8b          	im 11
 750:	f9          	im -7
 751:	2d          	call
 752:	70          	loadsp 0
 753:	88          	im 8
 754:	0c          	store
 755:	82          	im 2
 756:	3d          	pushspadd
 757:	0d          	popsp
 758:	04          	poppc

00000759 <_Z11cmd_progmemv>:
 759:	fc          	im -4
 75a:	3d          	pushspadd
 75b:	0d          	popsp
 75c:	a0          	im 32
 75d:	9f          	im 31
 75e:	33          	loadb
 75f:	a0          	im 32
 760:	a0          	im 32
 761:	33          	loadb
 762:	71          	loadsp 4
 763:	82          	im 2
 764:	80          	im 0
 765:	29          	mult
 766:	05          	add
 767:	a0          	im 32
 768:	9d          	im 29
 769:	33          	loadb
 76a:	a0          	im 32
 76b:	9e          	im 30
 76c:	33          	loadb
 76d:	71          	loadsp 4
 76e:	82          	im 2
 76f:	80          	im 0
 770:	29          	mult
 771:	05          	add
 772:	57          	storesp 28
 773:	57          	storesp 28
 774:	54          	storesp 16
 775:	52          	storesp 8

00000776 <.L137>:
 776:	ff          	im -1
 777:	13          	addsp 12
 778:	53          	storesp 12
 779:	72          	loadsp 8
 77a:	ff          	im -1
 77b:	2e          	eq
 77c:	a0          	im 32
 77d:	38          	neqbranch

0000077e <.L136>:
 77e:	82          	im 2
 77f:	90          	im 16
 780:	84          	im 4
 781:	08          	load
 782:	70          	loadsp 0
 783:	81          	im 1
 784:	06          	and
 785:	51          	storesp 4
 786:	52          	storesp 8
 787:	71          	loadsp 4
 788:	f5          	im -11
 789:	38          	neqbranch
 78a:	82          	im 2
 78b:	90          	im 16
 78c:	80          	im 0
 78d:	08          	load
 78e:	52          	storesp 8
 78f:	71          	loadsp 4
 790:	74          	loadsp 16
 791:	70          	loadsp 0
 792:	81          	im 1
 793:	05          	add
 794:	56          	storesp 24
 795:	34          	storeb
 796:	71          	loadsp 4
 797:	51          	storesp 4
 798:	8a          	im 10
 799:	85          	im 5
 79a:	2d          	call
 79b:	da          	im -38
 79c:	39          	poppcrel

0000079d <.L133>:
 79d:	8c          	im 12
 79e:	a3          	im 35
 79f:	2d          	call

000007a0 <_Z20cmd_raw_send_receivev>:
 7a0:	fd          	im -3
 7a1:	3d          	pushspadd
 7a2:	0d          	popsp
 7a3:	8c          	im 12
 7a4:	8e          	im 14
 7a5:	2d          	call
 7a6:	a0          	im 32
 7a7:	9d          	im 29
 7a8:	33          	loadb
 7a9:	a0          	im 32
 7aa:	9e          	im 30
 7ab:	33          	loadb
 7ac:	71          	loadsp 4
 7ad:	82          	im 2
 7ae:	80          	im 0
 7af:	29          	mult
 7b0:	05          	add
 7b1:	53          	storesp 12
 7b2:	53          	storesp 12
 7b3:	80          	im 0
 7b4:	72          	loadsp 8
 7b5:	27          	ulessthanorequal
 7b6:	96          	im 22
 7b7:	38          	neqbranch
 7b8:	a0          	im 32
 7b9:	a1          	im 33
 7ba:	72          	loadsp 8
 7bb:	54          	storesp 16
 7bc:	54          	storesp 16

000007bd <.L144>:
 7bd:	73          	loadsp 12
 7be:	70          	loadsp 0
 7bf:	81          	im 1
 7c0:	05          	add
 7c1:	55          	storesp 20
 7c2:	33          	loadb
 7c3:	82          	im 2
 7c4:	80          	im 0
 7c5:	84          	im 4
 7c6:	0c          	store
 7c7:	ff          	im -1
 7c8:	13          	addsp 12
 7c9:	53          	storesp 12
 7ca:	72          	loadsp 8
 7cb:	f1          	im -15
 7cc:	38          	neqbranch

000007cd <.L158>:
 7cd:	a0          	im 32
 7ce:	9f          	im 31
 7cf:	33          	loadb
 7d0:	a0          	im 32
 7d1:	a0          	im 32
 7d2:	33          	loadb
 7d3:	71          	loadsp 4
 7d4:	82          	im 2
 7d5:	80          	im 0
 7d6:	29          	mult
 7d7:	05          	add
 7d8:	55          	storesp 20
 7d9:	52          	storesp 8
 7da:	80          	im 0
 7db:	53          	storesp 12

000007dc <.L163>:
 7dc:	72          	loadsp 8
 7dd:	74          	loadsp 16
 7de:	27          	ulessthanorequal
 7df:	96          	im 22
 7e0:	38          	neqbranch
 7e1:	80          	im 0
 7e2:	0b          	nop
 7e3:	82          	im 2
 7e4:	80          	im 0
 7e5:	84          	im 4
 7e6:	0c          	store
 7e7:	82          	im 2
 7e8:	80          	im 0
 7e9:	84          	im 4
 7ea:	08          	load
 7eb:	52          	storesp 8
 7ec:	71          	loadsp 4
 7ed:	a0          	im 32
 7ee:	9c          	im 28
 7ef:	14          	addsp 16
 7f0:	34          	storeb
 7f1:	81          	im 1
 7f2:	13          	addsp 12
 7f3:	53          	storesp 12
 7f4:	e7          	im -25
 7f5:	39          	poppcrel

000007f6 <.L160>:
 7f6:	8b          	im 11
 7f7:	f9          	im -7
 7f8:	2d          	call
 7f9:	8a          	im 10
 7fa:	ee          	im -18
 7fb:	2d          	call
 7fc:	81          	im 1
 7fd:	84          	im 4
 7fe:	51          	storesp 4
 7ff:	8a          	im 10
 800:	a1          	im 33
 801:	2d          	call
 802:	73          	loadsp 12
 803:	88          	im 8
 804:	2a          	lshiftright
 805:	51          	storesp 4
 806:	8a          	im 10
 807:	a1          	im 33
 808:	2d          	call
 809:	73          	loadsp 12
 80a:	51          	storesp 4
 80b:	8a          	im 10
 80c:	a1          	im 33
 80d:	2d          	call
 80e:	80          	im 0
 80f:	53          	storesp 12

00000810 <.L164>:
 810:	72          	loadsp 8
 811:	74          	loadsp 16
 812:	27          	ulessthanorequal
 813:	8e          	im 14
 814:	38          	neqbranch
 815:	a0          	im 32
 816:	9c          	im 28
 817:	13          	addsp 12
 818:	33          	loadb
 819:	51          	storesp 4
 81a:	8a          	im 10
 81b:	a1          	im 33
 81c:	2d          	call
 81d:	81          	im 1
 81e:	13          	addsp 12
 81f:	53          	storesp 12
 820:	ef          	im -17
 821:	39          	poppcrel

00000822 <.L162>:
 822:	8b          	im 11
 823:	83          	im 3
 824:	2d          	call
 825:	85          	im 5
 826:	3d          	pushspadd
 827:	0d          	popsp
 828:	04          	poppc

00000829 <_Z19cmd_sst_aai_programv>:
 829:	fc          	im -4
 82a:	3d          	pushspadd
 82b:	0d          	popsp
 82c:	8c          	im 12
 82d:	8e          	im 14
 82e:	2d          	call
 82f:	86          	im 6
 830:	0b          	nop
 831:	82          	im 2
 832:	80          	im 0
 833:	84          	im 4
 834:	0c          	store
 835:	8b          	im 11
 836:	f9          	im -7
 837:	2d          	call
 838:	8c          	im 12
 839:	8e          	im 14
 83a:	2d          	call
 83b:	81          	im 1
 83c:	ad          	im 45
 83d:	0b          	nop
 83e:	82          	im 2
 83f:	80          	im 0
 840:	84          	im 4
 841:	0c          	store
 842:	a0          	im 32
 843:	9d          	im 29
 844:	33          	loadb
 845:	a0          	im 32
 846:	9e          	im 30
 847:	33          	loadb
 848:	71          	loadsp 4
 849:	82          	im 2
 84a:	80          	im 0
 84b:	29          	mult
 84c:	05          	add
 84d:	a0          	im 32
 84e:	9f          	im 31
 84f:	33          	loadb
 850:	82          	im 2
 851:	80          	im 0
 852:	84          	im 4
 853:	0c          	store
 854:	a0          	im 32
 855:	a0          	im 32
 856:	33          	loadb
 857:	82          	im 2
 858:	80          	im 0
 859:	84          	im 4
 85a:	0c          	store
 85b:	a0          	im 32
 85c:	a1          	im 33
 85d:	33          	loadb
 85e:	82          	im 2
 85f:	80          	im 0
 860:	84          	im 4
 861:	0c          	store
 862:	56          	storesp 24
 863:	52          	storesp 8
 864:	80          	im 0
 865:	54          	storesp 16
 866:	73          	loadsp 12
 867:	75          	loadsp 20
 868:	27          	ulessthanorequal
 869:	b9          	im 57
 86a:	38          	neqbranch
 86b:	a0          	im 32
 86c:	a3          	im 35
 86d:	53          	storesp 12

0000086e <.L189>:
 86e:	73          	loadsp 12
 86f:	80          	im 0
 870:	2e          	eq
 871:	8b          	im 11
 872:	38          	neqbranch
 873:	8c          	im 12
 874:	8e          	im 14
 875:	2d          	call
 876:	81          	im 1
 877:	ad          	im 45
 878:	0b          	nop
 879:	82          	im 2
 87a:	80          	im 0
 87b:	84          	im 4
 87c:	0c          	store

0000087d <.L179>:
 87d:	ff          	im -1
 87e:	13          	addsp 12
 87f:	33          	loadb
 880:	82          	im 2
 881:	80          	im 0
 882:	84          	im 4
 883:	0c          	store
 884:	72          	loadsp 8
 885:	33          	loadb
 886:	82          	im 2
 887:	80          	im 0
 888:	84          	im 4
 889:	0c          	store
 88a:	8b          	im 11
 88b:	f9          	im -7
 88c:	2d          	call

0000088d <.L186>:
 88d:	8e          	im 14
 88e:	a1          	im 33
 88f:	2d          	call
 890:	88          	im 8
 891:	08          	load
 892:	81          	im 1
 893:	06          	and
 894:	52          	storesp 8
 895:	71          	loadsp 4
 896:	f6          	im -10
 897:	38          	neqbranch
 898:	82          	im 2
 899:	14          	addsp 16
 89a:	82          	im 2
 89b:	14          	addsp 16
 89c:	54          	storesp 16
 89d:	54          	storesp 16
 89e:	74          	loadsp 16
 89f:	74          	loadsp 16
 8a0:	26          	ulessthan
 8a1:	cc          	im -52
 8a2:	38          	neqbranch

000008a3 <.L193>:
 8a3:	8c          	im 12
 8a4:	8e          	im 14
 8a5:	2d          	call
 8a6:	84          	im 4
 8a7:	0b          	nop
 8a8:	82          	im 2
 8a9:	80          	im 0
 8aa:	84          	im 4
 8ab:	0c          	store
 8ac:	8b          	im 11
 8ad:	f9          	im -7
 8ae:	2d          	call
 8af:	8a          	im 10
 8b0:	ee          	im -18
 8b1:	2d          	call
 8b2:	81          	im 1
 8b3:	87          	im 7
 8b4:	51          	storesp 4
 8b5:	8a          	im 10
 8b6:	a1          	im 33
 8b7:	2d          	call
 8b8:	8b          	im 11
 8b9:	83          	im 3
 8ba:	2d          	call
 8bb:	86          	im 6
 8bc:	3d          	pushspadd
 8bd:	0d          	popsp
 8be:	04          	poppc

000008bf <_Z11simpleReplyj>:
 8bf:	80          	im 0
 8c0:	3d          	pushspadd
 8c1:	0d          	popsp
 8c2:	8a          	im 10
 8c3:	ee          	im -18
 8c4:	2d          	call
 8c5:	72          	loadsp 8
 8c6:	81          	im 1
 8c7:	80          	im 0
 8c8:	07          	or
 8c9:	51          	storesp 4
 8ca:	8a          	im 10
 8cb:	a1          	im 33
 8cc:	2d          	call
 8cd:	8b          	im 11
 8ce:	83          	im 3
 8cf:	2d          	call
 8d0:	82          	im 2
 8d1:	3d          	pushspadd
 8d2:	0d          	popsp
 8d3:	04          	poppc

000008d4 <_Z16cmd_set_baudratev>:
 8d4:	fd          	im -3
 8d5:	3d          	pushspadd
 8d6:	0d          	popsp
 8d7:	a0          	im 32
 8d8:	9d          	im 29
 8d9:	33          	loadb
 8da:	a0          	im 32
 8db:	9e          	im 30
 8dc:	33          	loadb
 8dd:	71          	loadsp 4
 8de:	90          	im 16
 8df:	2b          	ashiftleft
 8e0:	71          	loadsp 4
 8e1:	88          	im 8
 8e2:	2b          	ashiftleft
 8e3:	07          	or
 8e4:	a0          	im 32
 8e5:	9f          	im 31
 8e6:	33          	loadb
 8e7:	70          	loadsp 0
 8e8:	72          	loadsp 8
 8e9:	07          	or
 8ea:	88          	im 8
 8eb:	2b          	ashiftleft
 8ec:	a0          	im 32
 8ed:	a0          	im 32
 8ee:	33          	loadb
 8ef:	71          	loadsp 4
 8f0:	07          	or
 8f1:	51          	storesp 4
 8f2:	52          	storesp 8
 8f3:	53          	storesp 12
 8f4:	55          	storesp 20
 8f5:	55          	storesp 20
 8f6:	52          	storesp 8
 8f7:	88          	im 8
 8f8:	51          	storesp 4
 8f9:	91          	im 17
 8fa:	bf          	im 63
 8fb:	2d          	call
 8fc:	81          	im 1
 8fd:	ff          	im -1
 8fe:	51          	storesp 4
 8ff:	8a          	im 10
 900:	85          	im 5
 901:	2d          	call

00000902 <.L196>:
 902:	82          	im 2
 903:	90          	im 16
 904:	84          	im 4
 905:	08          	load
 906:	70          	loadsp 0
 907:	81          	im 1
 908:	2a          	lshiftright
 909:	70          	loadsp 0
 90a:	81          	im 1
 90b:	06          	and
 90c:	51          	storesp 4
 90d:	51          	storesp 4
 90e:	52          	storesp 8
 90f:	71          	loadsp 4
 910:	f1          	im -15
 911:	38          	neqbranch
 912:	72          	loadsp 8
 913:	84          	im 4
 914:	80          	im 0
 915:	80          	im 0
 916:	07          	or
 917:	82          	im 2
 918:	90          	im 16
 919:	84          	im 4
 91a:	0c          	store
 91b:	85          	im 5
 91c:	3d          	pushspadd
 91d:	0d          	popsp
 91e:	04          	poppc

0000091f <_Z13cmd_waitreadyv>:
 91f:	fe          	im -2
 920:	3d          	pushspadd
 921:	0d          	popsp
 922:	8d          	im 13
 923:	fe          	im -2
 924:	2d          	call
 925:	88          	im 8
 926:	08          	load
 927:	80          	im 0
 928:	2e          	eq
 929:	97          	im 23
 92a:	38          	neqbranch

0000092b <.L201>:
 92b:	8e          	im 14
 92c:	a1          	im 33
 92d:	2d          	call
 92e:	88          	im 8
 92f:	08          	load
 930:	88          	im 8
 931:	08          	load
 932:	87          	im 7
 933:	2a          	lshiftright
 934:	81          	im 1
 935:	32          	xor
 936:	70          	loadsp 0
 937:	81          	im 1
 938:	06          	and
 939:	51          	storesp 4
 93a:	53          	storesp 12
 93b:	53          	storesp 12
 93c:	71          	loadsp 4
 93d:	ed          	im -19
 93e:	38          	neqbranch
 93f:	8f          	im 15
 940:	39          	poppcrel

00000941 <.L205>:
 941:	8e          	im 14
 942:	a1          	im 33
 943:	2d          	call
 944:	88          	im 8
 945:	08          	load
 946:	88          	im 8
 947:	08          	load
 948:	81          	im 1
 949:	06          	and
 94a:	53          	storesp 12
 94b:	53          	storesp 12
 94c:	71          	loadsp 4
 94d:	f3          	im -13
 94e:	38          	neqbranch

0000094f <.L204>:
 94f:	8a          	im 10
 950:	ee          	im -18
 951:	2d          	call
 952:	81          	im 1
 953:	83          	im 3
 954:	51          	storesp 4
 955:	8a          	im 10
 956:	a1          	im 33
 957:	2d          	call
 958:	72          	loadsp 8
 959:	51          	storesp 4
 95a:	8a          	im 10
 95b:	a1          	im 33
 95c:	2d          	call
 95d:	8b          	im 11
 95e:	83          	im 3
 95f:	2d          	call
 960:	84          	im 4
 961:	3d          	pushspadd
 962:	0d          	popsp
 963:	04          	poppc

00000964 <_Z11cmd_versionv>:
 964:	ff          	im -1
 965:	3d          	pushspadd
 966:	0d          	popsp
 967:	80          	im 0
 968:	0b          	nop
 969:	a2          	im 34
 96a:	c8          	im -56
 96b:	0c          	store
 96c:	8a          	im 10
 96d:	ee          	im -18
 96e:	2d          	call
 96f:	81          	im 1
 970:	81          	im 1
 971:	51          	storesp 4
 972:	8a          	im 10
 973:	a1          	im 33
 974:	2d          	call
 975:	8c          	im 12
 976:	52          	storesp 8
 977:	9d          	im 29
 978:	80          	im 0
 979:	51          	storesp 4
 97a:	8a          	im 10
 97b:	ce          	im -50
 97c:	2d          	call
 97d:	8b          	im 11
 97e:	83          	im 3
 97f:	2d          	call
 980:	83          	im 3
 981:	3d          	pushspadd
 982:	0d          	popsp
 983:	04          	poppc

00000984 <_Z12cmd_identifyv>:
 984:	fe          	im -2
 985:	3d          	pushspadd
 986:	0d          	popsp
 987:	80          	im 0
 988:	0b          	nop
 989:	a2          	im 34
 98a:	c8          	im -56
 98b:	0c          	store
 98c:	8a          	im 10
 98d:	ee          	im -18
 98e:	2d          	call
 98f:	81          	im 1
 990:	82          	im 2
 991:	51          	storesp 4
 992:	8a          	im 10
 993:	a1          	im 33
 994:	2d          	call
 995:	8c          	im 12
 996:	8e          	im 14
 997:	2d          	call
 998:	82          	im 2
 999:	80          	im 0
 99a:	84          	im 4
 99b:	52          	storesp 8
 99c:	81          	im 1
 99d:	9f          	im 31
 99e:	72          	loadsp 8
 99f:	0c          	store
 9a0:	80          	im 0
 9a1:	70          	loadsp 0
 9a2:	73          	loadsp 12
 9a3:	0c          	store
 9a4:	70          	loadsp 0
 9a5:	73          	loadsp 12
 9a6:	0c          	store
 9a7:	72          	loadsp 8
 9a8:	0c          	store
 9a9:	71          	loadsp 4
 9aa:	08          	load
 9ab:	52          	storesp 8
 9ac:	8b          	im 11
 9ad:	f9          	im -7
 9ae:	2d          	call
 9af:	71          	loadsp 4
 9b0:	a2          	im 34
 9b1:	d0          	im -48
 9b2:	0c          	store
 9b3:	71          	loadsp 4
 9b4:	90          	im 16
 9b5:	2a          	lshiftright
 9b6:	51          	storesp 4
 9b7:	8a          	im 10
 9b8:	a1          	im 33
 9b9:	2d          	call
 9ba:	a2          	im 34
 9bb:	d0          	im -48
 9bc:	08          	load
 9bd:	88          	im 8
 9be:	2a          	lshiftright
 9bf:	51          	storesp 4
 9c0:	8a          	im 10
 9c1:	a1          	im 33
 9c2:	2d          	call
 9c3:	a2          	im 34
 9c4:	d0          	im -48
 9c5:	08          	load
 9c6:	51          	storesp 4
 9c7:	8a          	im 10
 9c8:	a1          	im 33
 9c9:	2d          	call
 9ca:	8e          	im 14
 9cb:	a1          	im 33
 9cc:	2d          	call
 9cd:	88          	im 8
 9ce:	08          	load
 9cf:	51          	storesp 4
 9d0:	8a          	im 10
 9d1:	a1          	im 33
 9d2:	2d          	call
 9d3:	8b          	im 11
 9d4:	83          	im 3
 9d5:	2d          	call
 9d6:	84          	im 4
 9d7:	3d          	pushspadd
 9d8:	0d          	popsp
 9d9:	04          	poppc

000009da <_Z12cmd_enterpgmv>:
 9da:	80          	im 0
 9db:	3d          	pushspadd
 9dc:	0d          	popsp
 9dd:	81          	im 1
 9de:	0b          	nop
 9df:	a2          	im 34
 9e0:	cc          	im -52
 9e1:	0c          	store
 9e2:	80          	im 0
 9e3:	0b          	nop
 9e4:	82          	im 2
 9e5:	b0          	im 48
 9e6:	80          	im 0
 9e7:	0c          	store
 9e8:	85          	im 5
 9e9:	51          	storesp 4
 9ea:	91          	im 17
 9eb:	bf          	im 63
 9ec:	2d          	call
 9ed:	82          	im 2
 9ee:	3d          	pushspadd
 9ef:	0d          	popsp
 9f0:	04          	poppc

000009f1 <_Z12cmd_leavepgmv>:
 9f1:	80          	im 0
 9f2:	3d          	pushspadd
 9f3:	0d          	popsp
 9f4:	80          	im 0
 9f5:	0b          	nop
 9f6:	a2          	im 34
 9f7:	cc          	im -52
 9f8:	0c          	store
 9f9:	8b          	im 11
 9fa:	e4          	im -28
 9fb:	2d          	call
 9fc:	86          	im 6
 9fd:	51          	storesp 4
 9fe:	91          	im 17
 9ff:	bf          	im 63
 a00:	2d          	call
 a01:	82          	im 2
 a02:	3d          	pushspadd
 a03:	0d          	popsp
 a04:	04          	poppc

00000a05 <_Z9cmd_startv>:
 a05:	80          	im 0
 a06:	3d          	pushspadd
 a07:	0d          	popsp
 a08:	8a          	im 10
 a09:	51          	storesp 4
 a0a:	91          	im 17
 a0b:	bf          	im 63
 a0c:	2d          	call
 a0d:	8c          	im 12
 a0e:	a3          	im 35
 a0f:	2d          	call

00000a10 <_Z14processCommandv>:
 a10:	fe          	im -2
 a11:	3d          	pushspadd
 a12:	0d          	popsp
 a13:	80          	im 0
 a14:	0b          	nop
 a15:	a2          	im 34
 a16:	c4          	im -60
 a17:	08          	load
 a18:	52          	storesp 8
 a19:	52          	storesp 8
 a1a:	82          	im 2
 a1b:	71          	loadsp 4
 a1c:	27          	ulessthanorequal
 a1d:	80          	im 0
 a1e:	e5          	im -27
 a1f:	38          	neqbranch
 a20:	83          	im 3
 a21:	ff          	im -1
 a22:	ff          	im -1
 a23:	0b          	nop
 a24:	82          	im 2
 a25:	f0          	im -16
 a26:	80          	im 0
 a27:	0c          	store
 a28:	fe          	im -2
 a29:	11          	addsp 4
 a2a:	53          	storesp 12

00000a2b <.L234>:
 a2b:	71          	loadsp 4
 a2c:	73          	loadsp 12
 a2d:	27          	ulessthanorequal
 a2e:	8e          	im 14
 a2f:	38          	neqbranch
 a30:	a0          	im 32
 a31:	9c          	im 28
 a32:	12          	addsp 8
 a33:	33          	loadb
 a34:	82          	im 2
 a35:	f0          	im -16
 a36:	88          	im 8
 a37:	0c          	store
 a38:	81          	im 1
 a39:	12          	addsp 8
 a3a:	52          	storesp 8
 a3b:	ef          	im -17
 a3c:	39          	poppcrel

00000a3d <.L233>:
 a3d:	a2          	im 34
 a3e:	c4          	im -60
 a3f:	08          	load
 a40:	ff          	im -1
 a41:	05          	add
 a42:	a2          	im 34
 a43:	c4          	im -60
 a44:	0c          	store
 a45:	a2          	im 34
 a46:	c4          	im -60
 a47:	08          	load
 a48:	a0          	im 32
 a49:	9c          	im 28
 a4a:	11          	addsp 4
 a4b:	33          	loadb
 a4c:	53          	storesp 12
 a4d:	ff          	im -1
 a4e:	05          	add
 a4f:	a2          	im 34
 a50:	c4          	im -60
 a51:	0c          	store
 a52:	a2          	im 34
 a53:	c4          	im -60
 a54:	08          	load
 a55:	a0          	im 32
 a56:	9c          	im 28
 a57:	05          	add
 a58:	70          	loadsp 0
 a59:	33          	loadb
 a5a:	70          	loadsp 0
 a5b:	88          	im 8
 a5c:	2b          	ashiftleft
 a5d:	74          	loadsp 16
 a5e:	07          	or
 a5f:	82          	im 2
 a60:	f0          	im -16
 a61:	80          	im 0
 a62:	08          	load
 a63:	52          	storesp 8
 a64:	54          	storesp 16
 a65:	51          	storesp 4
 a66:	51          	storesp 4
 a67:	70          	loadsp 0
 a68:	72          	loadsp 8
 a69:	2e          	eq
 a6a:	09          	not
 a6b:	81          	im 1
 a6c:	06          	and
 a6d:	96          	im 22
 a6e:	38          	neqbranch
 a6f:	a0          	im 32
 a70:	9c          	im 28
 a71:	33          	loadb
 a72:	52          	storesp 8
 a73:	71          	loadsp 4
 a74:	8a          	im 10
 a75:	26          	ulessthan
 a76:	8d          	im 13
 a77:	38          	neqbranch
 a78:	71          	loadsp 4
 a79:	84          	im 4
 a7a:	29          	mult
 a7b:	9c          	im 28
 a7c:	d4          	im -44
 a7d:	05          	add
 a7e:	70          	loadsp 0
 a7f:	08          	load
 a80:	51          	storesp 4
 a81:	51          	storesp 4
 a82:	70          	loadsp 0
 a83:	2d          	call

00000a84 <.L224>:
 a84:	84          	im 4
 a85:	3d          	pushspadd
 a86:	0d          	popsp
 a87:	04          	poppc

00000a88 <_Z14configure_pinsv>:
 a88:	fc          	im -4
 a89:	3d          	pushspadd
 a8a:	0d          	popsp
 a8b:	81          	im 1
 a8c:	70          	loadsp 0
 a8d:	82          	im 2
 a8e:	a5          	im 37
 a8f:	d4          	im -44
 a90:	0c          	store
 a91:	55          	storesp 20
 a92:	82          	im 2
 a93:	0b          	nop
 a94:	82          	im 2
 a95:	a5          	im 37
 a96:	cc          	im -52
 a97:	0c          	store
 a98:	b1          	im 49
 a99:	0b          	nop
 a9a:	82          	im 2
 a9b:	a8          	im 40
 a9c:	80          	im 0
 a9d:	0c          	store
 a9e:	82          	im 2
 a9f:	a0          	im 32
 aa0:	a4          	im 36
 aa1:	70          	loadsp 0
 aa2:	08          	load
 aa3:	70          	loadsp 0
 aa4:	88          	im 8
 aa5:	80          	im 0
 aa6:	0a          	flip
 aa7:	07          	or
 aa8:	72          	loadsp 8
 aa9:	0c          	store
 aaa:	52          	storesp 8
 aab:	70          	loadsp 0
 aac:	08          	load
 aad:	70          	loadsp 0
 aae:	a0          	im 32
 aaf:	80          	im 0
 ab0:	80          	im 0
 ab1:	07          	or
 ab2:	72          	loadsp 8
 ab3:	0c          	store
 ab4:	52          	storesp 8
 ab5:	52          	storesp 8
 ab6:	ef          	im -17
 ab7:	ff          	im -1
 ab8:	0a          	flip
 ab9:	72          	loadsp 8
 aba:	08          	load
 abb:	70          	loadsp 0
 abc:	72          	loadsp 8
 abd:	06          	and
 abe:	74          	loadsp 16
 abf:	0c          	store
 ac0:	52          	storesp 8
 ac1:	54          	storesp 16
 ac2:	fe          	im -2
 ac3:	72          	loadsp 8
 ac4:	08          	load
 ac5:	70          	loadsp 0
 ac6:	72          	loadsp 8
 ac7:	06          	and
 ac8:	74          	loadsp 16
 ac9:	0c          	store
 aca:	52          	storesp 8
 acb:	53          	storesp 12
 acc:	82          	im 2
 acd:	a0          	im 32
 ace:	94          	im 20
 acf:	70          	loadsp 0
 ad0:	08          	load
 ad1:	70          	loadsp 0
 ad2:	f7          	im -9
 ad3:	ff          	im -1
 ad4:	0a          	flip
 ad5:	06          	and
 ad6:	72          	loadsp 8
 ad7:	0c          	store
 ad8:	52          	storesp 8
 ad9:	70          	loadsp 0
 ada:	08          	load
 adb:	70          	loadsp 0
 adc:	df          	im -33
 add:	ff          	im -1
 ade:	ff          	im -1
 adf:	06          	and
 ae0:	72          	loadsp 8
 ae1:	0c          	store
 ae2:	52          	storesp 8
 ae3:	70          	loadsp 0
 ae4:	08          	load
 ae5:	70          	loadsp 0
 ae6:	76          	loadsp 24
 ae7:	06          	and
 ae8:	72          	loadsp 8
 ae9:	0c          	store
 aea:	52          	storesp 8
 aeb:	70          	loadsp 0
 aec:	08          	load
 aed:	70          	loadsp 0
 aee:	75          	loadsp 20
 aef:	06          	and
 af0:	72          	loadsp 8
 af1:	0c          	store
 af2:	52          	storesp 8
 af3:	52          	storesp 8
 af4:	82          	im 2
 af5:	a0          	im 32
 af6:	84          	im 4
 af7:	70          	loadsp 0
 af8:	08          	load
 af9:	70          	loadsp 0
 afa:	77          	loadsp 28
 afb:	07          	or
 afc:	72          	loadsp 8
 afd:	0c          	store
 afe:	52          	storesp 8
 aff:	52          	storesp 8
 b00:	86          	im 6
 b01:	3d          	pushspadd
 b02:	0d          	popsp
 b03:	04          	poppc

00000b04 <main>:
 b04:	ff          	im -1
 b05:	3d          	pushspadd
 b06:	0d          	popsp
 b07:	80          	im 0
 b08:	0b          	nop
 b09:	a2          	im 34
 b0a:	cc          	im -52
 b0b:	0c          	store
 b0c:	80          	im 0
 b0d:	0b          	nop
 b0e:	a2          	im 34
 b0f:	c8          	im -56
 b10:	0c          	store
 b11:	80          	im 0
 b12:	0b          	nop
 b13:	a2          	im 34
 b14:	c4          	im -60
 b15:	0c          	store
 b16:	8d          	im 13
 b17:	e1          	im -31
 b18:	0b          	nop
 b19:	a0          	im 32
 b1a:	80          	im 0
 b1b:	0c          	store
 b1c:	95          	im 21
 b1d:	88          	im 8
 b1e:	2d          	call
 b1f:	84          	im 4
 b20:	80          	im 0
 b21:	b3          	im 51
 b22:	0b          	nop
 b23:	82          	im 2
 b24:	90          	im 16
 b25:	84          	im 4
 b26:	0c          	store
 b27:	88          	im 8
 b28:	0b          	nop
 b29:	82          	im 2
 b2a:	c0          	im -64
 b2b:	84          	im 4
 b2c:	0c          	store
 b2d:	81          	im 1
 b2e:	0b          	nop
 b2f:	82          	im 2
 b30:	c0          	im -64
 b31:	80          	im 0
 b32:	0c          	store
 b33:	8b          	im 11
 b34:	e4          	im -28
 b35:	2d          	call
 b36:	82          	im 2
 b37:	88          	im 8
 b38:	88          	im 8
 b39:	0b          	nop
 b3a:	82          	im 2
 b3b:	f0          	im -16
 b3c:	84          	im 4
 b3d:	0c          	store
 b3e:	81          	im 1
 b3f:	f2          	im -14
 b40:	0b          	nop
 b41:	82          	im 2
 b42:	80          	im 0
 b43:	80          	im 0
 b44:	0c          	store
 b45:	8b          	im 11
 b46:	f9          	im -7
 b47:	2d          	call
 b48:	8c          	im 12
 b49:	8e          	im 14
 b4a:	2d          	call
 b4b:	8c          	im 12
 b4c:	8e          	im 14
 b4d:	2d          	call
 b4e:	84          	im 4
 b4f:	0b          	nop
 b50:	82          	im 2
 b51:	80          	im 0
 b52:	84          	im 4
 b53:	0c          	store
 b54:	8b          	im 11
 b55:	f9          	im -7
 b56:	2d          	call
 b57:	80          	im 0
 b58:	0b          	nop
 b59:	a2          	im 34
 b5a:	c0          	im -64
 b5b:	0c          	store
 b5c:	80          	im 0
 b5d:	0b          	nop
 b5e:	a2          	im 34
 b5f:	bc          	im 60
 b60:	0c          	store

00000b61 <.L323>:
 b61:	8b          	im 11
 b62:	ad          	im 45
 b63:	2d          	call
 b64:	88          	im 8
 b65:	08          	load
 b66:	a2          	im 34
 b67:	c0          	im -64
 b68:	08          	load
 b69:	52          	storesp 8
 b6a:	52          	storesp 8
 b6b:	70          	loadsp 0
 b6c:	80          	im 0
 b6d:	2e          	eq
 b6e:	80          	im 0
 b6f:	e0          	im -32
 b70:	38          	neqbranch
 b71:	88          	im 8
 b72:	08          	load
 b73:	80          	im 0
 b74:	fe          	im -2
 b75:	2e          	eq
 b76:	09          	not
 b77:	81          	im 1
 b78:	06          	and
 b79:	92          	im 18
 b7a:	38          	neqbranch
 b7b:	a2          	im 34
 b7c:	c4          	im -60
 b7d:	08          	load
 b7e:	80          	im 0
 b7f:	2e          	eq
 b80:	e0          	im -32
 b81:	38          	neqbranch
 b82:	80          	im 0
 b83:	0b          	nop
 b84:	a2          	im 34
 b85:	c0          	im -64
 b86:	0c          	store
 b87:	94          	im 20
 b88:	90          	im 16
 b89:	2d          	call
 b8a:	d6          	im -42
 b8b:	39          	poppcrel

00000b8c <.L309>:
 b8c:	88          	im 8
 b8d:	08          	load
 b8e:	80          	im 0
 b8f:	fd          	im -3
 b90:	2e          	eq
 b91:	09          	not
 b92:	81          	im 1
 b93:	06          	and
 b94:	88          	im 8
 b95:	38          	neqbranch
 b96:	81          	im 1
 b97:	0b          	nop
 b98:	a2          	im 34
 b99:	bc          	im 60
 b9a:	0c          	store
 b9b:	c5          	im -59
 b9c:	39          	poppcrel

00000b9d <.L312>:
 b9d:	a2          	im 34
 b9e:	c4          	im -60
 b9f:	08          	load
 ba0:	51          	storesp 4
 ba1:	70          	loadsp 0
 ba2:	82          	im 2
 ba3:	9f          	im 31
 ba4:	26          	ulessthan
 ba5:	a2          	im 34
 ba6:	38          	neqbranch
 ba7:	a2          	im 34
 ba8:	bc          	im 60
 ba9:	08          	load
 baa:	80          	im 0
 bab:	2e          	eq
 bac:	8b          	im 11
 bad:	38          	neqbranch
 bae:	80          	im 0
 baf:	0b          	nop
 bb0:	a2          	im 34
 bb1:	bc          	im 60
 bb2:	0c          	store
 bb3:	88          	im 8
 bb4:	08          	load
 bb5:	a0          	im 32
 bb6:	32          	xor
 bb7:	52          	storesp 8

00000bb8 <.L315>:
 bb8:	71          	loadsp 4
 bb9:	a0          	im 32
 bba:	9c          	im 28
 bbb:	12          	addsp 8
 bbc:	34          	storeb
 bbd:	a2          	im 34
 bbe:	c4          	im -60
 bbf:	08          	load
 bc0:	81          	im 1
 bc1:	05          	add
 bc2:	a2          	im 34
 bc3:	c4          	im -60
 bc4:	0c          	store
 bc5:	ff          	im -1
 bc6:	9a          	im 26
 bc7:	39          	poppcrel

00000bc8 <.L314>:
 bc8:	80          	im 0
 bc9:	0b          	nop
 bca:	a2          	im 34
 bcb:	c0          	im -64
 bcc:	0c          	store
 bcd:	ff          	im -1
 bce:	92          	im 18
 bcf:	39          	poppcrel

00000bd0 <.L308>:
 bd0:	88          	im 8
 bd1:	08          	load
 bd2:	80          	im 0
 bd3:	fe          	im -2
 bd4:	2e          	eq
 bd5:	09          	not
 bd6:	81          	im 1
 bd7:	06          	and
 bd8:	ff          	im -1
 bd9:	87          	im 7
 bda:	38          	neqbranch
 bdb:	70          	loadsp 0
 bdc:	a2          	im 34
 bdd:	c4          	im -60
 bde:	0c          	store
 bdf:	83          	im 3
 be0:	ff          	im -1
 be1:	ff          	im -1
 be2:	0b          	nop
 be3:	82          	im 2
 be4:	f0          	im -16
 be5:	80          	im 0
 be6:	0c          	store
 be7:	81          	im 1
 be8:	0b          	nop
 be9:	a2          	im 34
 bea:	c0          	im -64
 beb:	0c          	store
 bec:	70          	loadsp 0
 bed:	a2          	im 34
 bee:	bc          	im 60
 bef:	0c          	store
 bf0:	fe          	im -2
 bf1:	ef          	im -17
 bf2:	39          	poppcrel

00000bf3 <___zpu_interrupt_vector>:
 bf3:	80          	im 0
 bf4:	3d          	pushspadd
 bf5:	0d          	popsp
 bf6:	88          	im 8
 bf7:	08          	load
 bf8:	8c          	im 12
 bf9:	08          	load
 bfa:	90          	im 16
 bfb:	08          	load
 bfc:	a0          	im 32
 bfd:	80          	im 0
 bfe:	08          	load
 bff:	51          	storesp 4
 c00:	70          	loadsp 0
 c01:	2d          	call
 c02:	90          	im 16
 c03:	0c          	store
 c04:	8c          	im 12
 c05:	0c          	store
 c06:	8a          	im 10
 c07:	0c          	store
 c08:	81          	im 1
 c09:	0b          	nop
 c0a:	82          	im 2
 c0b:	c0          	im -64
 c0c:	80          	im 0
 c0d:	0c          	store
 c0e:	82          	im 2
 c0f:	3d          	pushspadd
 c10:	0d          	popsp
 c11:	04          	poppc

00000c12 <_premain>:
 c12:	ff          	im -1
 c13:	3d          	pushspadd
 c14:	0d          	popsp
 c15:	80          	im 0
 c16:	52          	storesp 8
 c17:	80          	im 0
 c18:	51          	storesp 4
 c19:	96          	im 22
 c1a:	84          	im 4
 c1b:	2d          	call
 c1c:	83          	im 3
 c1d:	3d          	pushspadd
 c1e:	0d          	popsp
 c1f:	04          	poppc

00000c20 <__divsi3>:
 c20:	94          	im 20
 c21:	08          	load
 c22:	02          	pushsp
 c23:	94          	im 20
 c24:	0c          	store
 c25:	f9          	im -7
 c26:	3d          	pushspadd
 c27:	0d          	popsp
 c28:	80          	im 0
 c29:	0b          	nop
 c2a:	94          	im 20
 c2b:	08          	load
 c2c:	fc          	im -4
 c2d:	05          	add
 c2e:	0c          	store
 c2f:	94          	im 20
 c30:	08          	load
 c31:	88          	im 8
 c32:	05          	add
 c33:	08          	load
 c34:	80          	im 0
 c35:	25          	lessthanorequal
 c36:	ab          	im 43
 c37:	38          	neqbranch
 c38:	94          	im 20
 c39:	08          	load
 c3a:	88          	im 8
 c3b:	05          	add
 c3c:	08          	load
 c3d:	30          	neg
 c3e:	94          	im 20
 c3f:	08          	load
 c40:	88          	im 8
 c41:	05          	add
 c42:	0c          	store
 c43:	80          	im 0
 c44:	0b          	nop
 c45:	94          	im 20
 c46:	08          	load
 c47:	f4          	im -12
 c48:	05          	add
 c49:	0c          	store
 c4a:	94          	im 20
 c4b:	08          	load
 c4c:	fc          	im -4
 c4d:	05          	add
 c4e:	08          	load
 c4f:	88          	im 8
 c50:	38          	neqbranch
 c51:	81          	im 1
 c52:	0b          	nop
 c53:	94          	im 20
 c54:	08          	load
 c55:	f4          	im -12
 c56:	05          	add
 c57:	0c          	store

00000c58 <.L3>:
 c58:	94          	im 20
 c59:	08          	load
 c5a:	f4          	im -12
 c5b:	05          	add
 c5c:	08          	load
 c5d:	94          	im 20
 c5e:	08          	load
 c5f:	fc          	im -4
 c60:	05          	add
 c61:	0c          	store

00000c62 <.L2>:
 c62:	94          	im 20
 c63:	08          	load
 c64:	8c          	im 12
 c65:	05          	add
 c66:	08          	load
 c67:	80          	im 0
 c68:	25          	lessthanorequal
 c69:	ab          	im 43
 c6a:	38          	neqbranch
 c6b:	94          	im 20
 c6c:	08          	load
 c6d:	8c          	im 12
 c6e:	05          	add
 c6f:	08          	load
 c70:	30          	neg
 c71:	94          	im 20
 c72:	08          	load
 c73:	8c          	im 12
 c74:	05          	add
 c75:	0c          	store
 c76:	80          	im 0
 c77:	0b          	nop
 c78:	94          	im 20
 c79:	08          	load
 c7a:	f0          	im -16
 c7b:	05          	add
 c7c:	0c          	store
 c7d:	94          	im 20
 c7e:	08          	load
 c7f:	fc          	im -4
 c80:	05          	add
 c81:	08          	load
 c82:	88          	im 8
 c83:	38          	neqbranch
 c84:	81          	im 1
 c85:	0b          	nop
 c86:	94          	im 20
 c87:	08          	load
 c88:	f0          	im -16
 c89:	05          	add
 c8a:	0c          	store

00000c8b <.L5>:
 c8b:	94          	im 20
 c8c:	08          	load
 c8d:	f0          	im -16
 c8e:	05          	add
 c8f:	08          	load
 c90:	94          	im 20
 c91:	08          	load
 c92:	fc          	im -4
 c93:	05          	add
 c94:	0c          	store

00000c95 <.L4>:
 c95:	80          	im 0
 c96:	53          	storesp 12
 c97:	94          	im 20
 c98:	08          	load
 c99:	8c          	im 12
 c9a:	05          	add
 c9b:	08          	load
 c9c:	52          	storesp 8
 c9d:	94          	im 20
 c9e:	08          	load
 c9f:	88          	im 8
 ca0:	05          	add
 ca1:	08          	load
 ca2:	51          	storesp 4
 ca3:	81          	im 1
 ca4:	a7          	im 39
 ca5:	3f          	callpcrel
 ca6:	88          	im 8
 ca7:	08          	load
 ca8:	70          	loadsp 0
 ca9:	94          	im 20
 caa:	08          	load
 cab:	f8          	im -8
 cac:	05          	add
 cad:	0c          	store
 cae:	54          	storesp 16
 caf:	94          	im 20
 cb0:	08          	load
 cb1:	fc          	im -4
 cb2:	05          	add
 cb3:	08          	load
 cb4:	80          	im 0
 cb5:	2e          	eq
 cb6:	8c          	im 12
 cb7:	38          	neqbranch
 cb8:	94          	im 20
 cb9:	08          	load
 cba:	f8          	im -8
 cbb:	05          	add
 cbc:	08          	load
 cbd:	30          	neg
 cbe:	94          	im 20
 cbf:	08          	load
 cc0:	f8          	im -8
 cc1:	05          	add
 cc2:	0c          	store

00000cc3 <.L6>:
 cc3:	94          	im 20
 cc4:	08          	load
 cc5:	f8          	im -8
 cc6:	05          	add
 cc7:	08          	load
 cc8:	70          	loadsp 0
 cc9:	88          	im 8
 cca:	0c          	store
 ccb:	54          	storesp 16
 ccc:	89          	im 9
 ccd:	3d          	pushspadd
 cce:	0d          	popsp
 ccf:	94          	im 20
 cd0:	0c          	store
 cd1:	04          	poppc

00000cd2 <__modsi3>:
 cd2:	94          	im 20
 cd3:	08          	load
 cd4:	02          	pushsp
 cd5:	94          	im 20
 cd6:	0c          	store
 cd7:	fb          	im -5
 cd8:	3d          	pushspadd
 cd9:	0d          	popsp
 cda:	80          	im 0
 cdb:	0b          	nop
 cdc:	94          	im 20
 cdd:	08          	load
 cde:	fc          	im -4
 cdf:	05          	add
 ce0:	0c          	store
 ce1:	94          	im 20
 ce2:	08          	load
 ce3:	88          	im 8
 ce4:	05          	add
 ce5:	08          	load
 ce6:	80          	im 0
 ce7:	25          	lessthanorequal
 ce8:	93          	im 19
 ce9:	38          	neqbranch
 cea:	94          	im 20
 ceb:	08          	load
 cec:	88          	im 8
 ced:	05          	add
 cee:	08          	load
 cef:	30          	neg
 cf0:	94          	im 20
 cf1:	08          	load
 cf2:	88          	im 8
 cf3:	05          	add
 cf4:	0c          	store
 cf5:	81          	im 1
 cf6:	0b          	nop
 cf7:	94          	im 20
 cf8:	08          	load
 cf9:	fc          	im -4
 cfa:	05          	add
 cfb:	0c          	store

00000cfc <.L8>:
 cfc:	94          	im 20
 cfd:	08          	load
 cfe:	8c          	im 12
 cff:	05          	add
 d00:	08          	load
 d01:	80          	im 0
 d02:	25          	lessthanorequal
 d03:	8c          	im 12
 d04:	38          	neqbranch
 d05:	94          	im 20
 d06:	08          	load
 d07:	8c          	im 12
 d08:	05          	add
 d09:	08          	load
 d0a:	30          	neg
 d0b:	94          	im 20
 d0c:	08          	load
 d0d:	8c          	im 12
 d0e:	05          	add
 d0f:	0c          	store

00000d10 <.L9>:
 d10:	81          	im 1
 d11:	53          	storesp 12
 d12:	94          	im 20
 d13:	08          	load
 d14:	8c          	im 12
 d15:	05          	add
 d16:	08          	load
 d17:	52          	storesp 8
 d18:	94          	im 20
 d19:	08          	load
 d1a:	88          	im 8
 d1b:	05          	add
 d1c:	08          	load
 d1d:	51          	storesp 4
 d1e:	ad          	im 45
 d1f:	3f          	callpcrel
 d20:	88          	im 8
 d21:	08          	load
 d22:	70          	loadsp 0
 d23:	94          	im 20
 d24:	08          	load
 d25:	f8          	im -8
 d26:	05          	add
 d27:	0c          	store
 d28:	54          	storesp 16
 d29:	94          	im 20
 d2a:	08          	load
 d2b:	fc          	im -4
 d2c:	05          	add
 d2d:	08          	load
 d2e:	80          	im 0
 d2f:	2e          	eq
 d30:	8c          	im 12
 d31:	38          	neqbranch
 d32:	94          	im 20
 d33:	08          	load
 d34:	f8          	im -8
 d35:	05          	add
 d36:	08          	load
 d37:	30          	neg
 d38:	94          	im 20
 d39:	08          	load
 d3a:	f8          	im -8
 d3b:	05          	add
 d3c:	0c          	store

00000d3d <.L10>:
 d3d:	94          	im 20
 d3e:	08          	load
 d3f:	f8          	im -8
 d40:	05          	add
 d41:	08          	load
 d42:	70          	loadsp 0
 d43:	88          	im 8
 d44:	0c          	store
 d45:	54          	storesp 16
 d46:	87          	im 7
 d47:	3d          	pushspadd
 d48:	0d          	popsp
 d49:	94          	im 20
 d4a:	0c          	store
 d4b:	04          	poppc

00000d4c <udivmodsi4>:
 d4c:	94          	im 20
 d4d:	08          	load
 d4e:	02          	pushsp
 d4f:	94          	im 20
 d50:	0c          	store
 d51:	fd          	im -3
 d52:	3d          	pushspadd
 d53:	0d          	popsp
 d54:	81          	im 1
 d55:	0b          	nop
 d56:	94          	im 20
 d57:	08          	load
 d58:	fc          	im -4
 d59:	05          	add
 d5a:	0c          	store
 d5b:	80          	im 0
 d5c:	0b          	nop
 d5d:	94          	im 20
 d5e:	08          	load
 d5f:	f8          	im -8
 d60:	05          	add
 d61:	0c          	store

00000d62 <.L2>:
 d62:	94          	im 20
 d63:	08          	load
 d64:	8c          	im 12
 d65:	05          	add
 d66:	08          	load
 d67:	94          	im 20
 d68:	08          	load
 d69:	88          	im 8
 d6a:	05          	add
 d6b:	08          	load
 d6c:	27          	ulessthanorequal
 d6d:	ac          	im 44
 d6e:	38          	neqbranch
 d6f:	94          	im 20
 d70:	08          	load
 d71:	fc          	im -4
 d72:	05          	add
 d73:	08          	load
 d74:	80          	im 0
 d75:	2e          	eq
 d76:	a3          	im 35
 d77:	38          	neqbranch
 d78:	80          	im 0
 d79:	0b          	nop
 d7a:	94          	im 20
 d7b:	08          	load
 d7c:	8c          	im 12
 d7d:	05          	add
 d7e:	08          	load
 d7f:	24          	lessthan
 d80:	99          	im 25
 d81:	38          	neqbranch
 d82:	94          	im 20
 d83:	08          	load
 d84:	8c          	im 12
 d85:	05          	add
 d86:	08          	load
 d87:	10          	addsp 0
 d88:	94          	im 20
 d89:	08          	load
 d8a:	8c          	im 12
 d8b:	05          	add
 d8c:	0c          	store
 d8d:	94          	im 20
 d8e:	08          	load
 d8f:	fc          	im -4
 d90:	05          	add
 d91:	08          	load
 d92:	10          	addsp 0
 d93:	94          	im 20
 d94:	08          	load
 d95:	fc          	im -4
 d96:	05          	add
 d97:	0c          	store
 d98:	c9          	im -55
 d99:	39          	poppcrel

00000d9a <.L4>:
 d9a:	94          	im 20
 d9b:	08          	load
 d9c:	fc          	im -4
 d9d:	05          	add
 d9e:	08          	load
 d9f:	80          	im 0
 da0:	2e          	eq
 da1:	80          	im 0
 da2:	c9          	im -55
 da3:	38          	neqbranch
 da4:	94          	im 20
 da5:	08          	load
 da6:	8c          	im 12
 da7:	05          	add
 da8:	08          	load
 da9:	94          	im 20
 daa:	08          	load
 dab:	88          	im 8
 dac:	05          	add
 dad:	08          	load
 dae:	26          	ulessthan
 daf:	a1          	im 33
 db0:	38          	neqbranch
 db1:	94          	im 20
 db2:	08          	load
 db3:	88          	im 8
 db4:	05          	add
 db5:	08          	load
 db6:	94          	im 20
 db7:	08          	load
 db8:	8c          	im 12
 db9:	05          	add
 dba:	08          	load
 dbb:	31          	sub
 dbc:	94          	im 20
 dbd:	08          	load
 dbe:	88          	im 8
 dbf:	05          	add
 dc0:	0c          	store
 dc1:	94          	im 20
 dc2:	08          	load
 dc3:	f8          	im -8
 dc4:	05          	add
 dc5:	08          	load
 dc6:	94          	im 20
 dc7:	08          	load
 dc8:	fc          	im -4
 dc9:	05          	add
 dca:	08          	load
 dcb:	07          	or
 dcc:	94          	im 20
 dcd:	08          	load
 dce:	f8          	im -8
 dcf:	05          	add
 dd0:	0c          	store

00000dd1 <.L6>:
 dd1:	94          	im 20
 dd2:	08          	load
 dd3:	fc          	im -4
 dd4:	05          	add
 dd5:	08          	load
 dd6:	81          	im 1
 dd7:	2a          	lshiftright
 dd8:	94          	im 20
 dd9:	08          	load
 dda:	fc          	im -4
 ddb:	05          	add
 ddc:	0c          	store
 ddd:	94          	im 20
 dde:	08          	load
 ddf:	8c          	im 12
 de0:	05          	add
 de1:	08          	load
 de2:	81          	im 1
 de3:	2a          	lshiftright
 de4:	94          	im 20
 de5:	08          	load
 de6:	8c          	im 12
 de7:	05          	add
 de8:	0c          	store
 de9:	ff          	im -1
 dea:	af          	im 47
 deb:	39          	poppcrel

00000dec <.L5>:
 dec:	94          	im 20
 ded:	08          	load
 dee:	90          	im 16
 def:	05          	add
 df0:	08          	load
 df1:	80          	im 0
 df2:	2e          	eq
 df3:	8f          	im 15
 df4:	38          	neqbranch
 df5:	94          	im 20
 df6:	08          	load
 df7:	88          	im 8
 df8:	05          	add
 df9:	08          	load
 dfa:	70          	loadsp 0
 dfb:	94          	im 20
 dfc:	08          	load
 dfd:	f4          	im -12
 dfe:	05          	add
 dff:	0c          	store
 e00:	51          	storesp 4
 e01:	8d          	im 13
 e02:	39          	poppcrel

00000e03 <.L7>:
 e03:	94          	im 20
 e04:	08          	load
 e05:	f8          	im -8
 e06:	05          	add
 e07:	08          	load
 e08:	70          	loadsp 0
 e09:	94          	im 20
 e0a:	08          	load
 e0b:	f4          	im -12
 e0c:	05          	add
 e0d:	0c          	store
 e0e:	51          	storesp 4

00000e0f <.L1>:
 e0f:	94          	im 20
 e10:	08          	load
 e11:	f4          	im -12
 e12:	05          	add
 e13:	08          	load
 e14:	88          	im 8
 e15:	0c          	store
 e16:	85          	im 5
 e17:	3d          	pushspadd
 e18:	0d          	popsp
 e19:	94          	im 20
 e1a:	0c          	store
 e1b:	04          	poppc

00000e1c <__do_global_ctors_aux>:
 e1c:	ff          	im -1
 e1d:	3d          	pushspadd
 e1e:	0d          	popsp
 e1f:	9d          	im 29
 e20:	a0          	im 32
 e21:	0b          	nop
 e22:	fc          	im -4
 e23:	05          	add
 e24:	70          	loadsp 0
 e25:	08          	load
 e26:	52          	storesp 8
 e27:	52          	storesp 8
 e28:	70          	loadsp 0
 e29:	ff          	im -1
 e2a:	2e          	eq
 e2b:	91          	im 17
 e2c:	38          	neqbranch

00000e2d <.L10>:
 e2d:	70          	loadsp 0
 e2e:	2d          	call
 e2f:	fc          	im -4
 e30:	12          	addsp 8
 e31:	70          	loadsp 0
 e32:	08          	load
 e33:	52          	storesp 8
 e34:	52          	storesp 8
 e35:	70          	loadsp 0
 e36:	ff          	im -1
 e37:	2e          	eq
 e38:	09          	not
 e39:	81          	im 1
 e3a:	06          	and
 e3b:	f1          	im -15
 e3c:	38          	neqbranch

00000e3d <.L7>:
 e3d:	83          	im 3
 e3e:	3d          	pushspadd
 e3f:	0d          	popsp
 e40:	04          	poppc

00000e41 <call___do_global_ctors_aux>:
 e41:	04          	poppc
Disassembly of section .fini:

00000e42 <_fini>:
 e42:	ec          	im -20
 e43:	db          	im -37
 e44:	3f          	callpcrel
 e45:	04          	poppc
Disassembly of section .boots:

00001000 <ivector>:
    1000:	00          	breakpoint
    1001:	00          	breakpoint
	...

00001004 <__sketch_start>:
    1004:	0b          	nop
    1005:	00          	breakpoint
	...
Disassembly of section .vectors:

00000000 <_memreg-0x8>:
	...
